target datalayout = "e-m:e-p270:32:32-p271:32:32-p272:64:64-i64:64-i128:128-f80:128-n8:16:32:64-S128"
target triple = "x86_64-pc-linux-gnu"

%struct.H5B_class_t = type { i32, i64, ptr, ptr, ptr, ptr, ptr, ptr, i8, i8, i32, ptr, ptr, ptr, ptr }
%struct.H5O_stab_t = type { i64, i64 }
%struct.H5O_loc_t = type { ptr, i64, i8 }
%struct.H5G_bt_it_idx_common_t = type { i64, i64, ptr }
%struct.H5G_bt_it_gnbi_t = type { %struct.H5G_bt_it_idx_common_t, ptr, ptr }

@H5B_SNODE = external global [1 x %struct.H5B_class_t], align 16
@.str = private unnamed_addr constant [101 x i8] c"generated/home/dtcxzyw/WorkSpace/Projects/compilers/llvm-opt-benchmark/bench/hdf5/hdf5/src/H5Gstab.c\00", align 1
@H5E_SYM_g = external global i64, align 8
@H5E_CANTINIT_g = external global i64, align 8
@H5E_PROTECT_g = external global i64, align 8
@.str.3 = private unnamed_addr constant [36 x i8] c"unable to protect symbol table heap\00", align 1
@.str.6 = private unnamed_addr constant [38 x i8] c"unable to unprotect symbol table heap\00", align 1
@H5E_NOTFOUND_g = external global i64, align 8
@.str.16 = private unnamed_addr constant [39 x i8] c"unable to determine local heap address\00", align 1
@.str.17 = private unnamed_addr constant [26 x i8] c"iteration operator failed\00", align 1
@H5E_ARGS_g = external global i64, align 8
@.str.20 = private unnamed_addr constant [19 x i8] c"index out of bound\00", align 1
@__func__.H5G__stab_get_name_by_idx = private unnamed_addr constant [26 x i8] c"H5G__stab_get_name_by_idx\00", align 1
@H5E_BADTYPE_g = external global i64, align 8

; Function Attrs: nounwind uwtable
define i32 @H5G__stab_get_name_by_idx(ptr noundef %0, i32 noundef %1, i64 noundef %2, ptr noundef %3, i64 noundef %4, ptr noundef %5) #0 {
  %7 = alloca ptr, align 8
  %8 = alloca i32, align 4
  %9 = alloca i64, align 8
  %10 = alloca ptr, align 8
  %11 = alloca i64, align 8
  %12 = alloca ptr, align 8
  %13 = alloca ptr, align 8
  %14 = alloca %struct.H5O_stab_t, align 8
  %15 = alloca %struct.H5G_bt_it_gnbi_t, align 8
  %16 = alloca i8, align 1
  %17 = alloca i32, align 4
  %18 = alloca i8, align 1
  %19 = alloca i64, align 8
  store ptr %0, ptr %7, align 8
  store i32 %1, ptr %8, align 4
  store i64 %2, ptr %9, align 8
  store ptr %3, ptr %10, align 8
  store i64 %4, ptr %11, align 8
  store ptr %5, ptr %12, align 8
  store ptr null, ptr %13, align 8
  store i8 0, ptr %16, align 1
  store i32 0, ptr %17, align 4
  call void @llvm.memset.p0.i64(ptr align 8 %15, i8 0, i64 40, i1 false)
  store i8 0, ptr %18, align 1
  %20 = load ptr, ptr %7, align 8
  %21 = call ptr @H5O_msg_read(ptr noundef %20, i32 noundef 17, ptr noundef %14)
  %22 = icmp eq ptr null, %21
  br i1 %22, label %23, label %38

23:                                               ; preds = %6
  br label %24

24:                                               ; preds = %23
  br label %25

25:                                               ; preds = %24
  br label %26

26:                                               ; preds = %25
  %27 = load i64, ptr @H5E_SYM_g, align 8
  %28 = load i64, ptr @H5E_NOTFOUND_g, align 8
  %29 = call i32 (ptr, ptr, i32, i64, i64, ptr, ...) @H5E_printf_stack(ptr noundef @.str, ptr noundef @__func__.H5G__stab_get_name_by_idx, i32 noundef 695, i64 noundef %27, i64 noundef %28, ptr noundef @.str.16)
  br label %30

30:                                               ; preds = %26
  store i8 1, ptr %18, align 1
  %31 = load i8, ptr %18, align 1
  %32 = trunc i8 %31 to i1
  %33 = zext i1 %32 to i8
  store i8 %33, ptr %18, align 1
  br label %34

34:                                               ; preds = %30
  br label %35

35:                                               ; preds = %34
  store i32 -1, ptr %17, align 4
  br label %180

36:                                               ; No predecessors!
  br label %37

37:                                               ; preds = %36
  br label %38

38:                                               ; preds = %37, %6
  %39 = load ptr, ptr %7, align 8
  %40 = getelementptr inbounds %struct.H5O_loc_t, ptr %39, i32 0, i32 0
  %41 = load ptr, ptr %40, align 8
  %42 = getelementptr inbounds %struct.H5O_stab_t, ptr %14, i32 0, i32 1
  %43 = load i64, ptr %42, align 8
  %44 = call ptr @H5HL_protect(ptr noundef %41, i64 noundef %43, i32 noundef 128)
  store ptr %44, ptr %13, align 8
  %45 = icmp eq ptr null, %44
  br i1 %45, label %46, label %61

46:                                               ; preds = %38
  br label %47

47:                                               ; preds = %46
  br label %48

48:                                               ; preds = %47
  br label %49

49:                                               ; preds = %48
  %50 = load i64, ptr @H5E_SYM_g, align 8
  %51 = load i64, ptr @H5E_PROTECT_g, align 8
  %52 = call i32 (ptr, ptr, i32, i64, i64, ptr, ...) @H5E_printf_stack(ptr noundef @.str, ptr noundef @__func__.H5G__stab_get_name_by_idx, i32 noundef 699, i64 noundef %50, i64 noundef %51, ptr noundef @.str.3)
  br label %53

53:                                               ; preds = %49
  store i8 1, ptr %18, align 1
  %54 = load i8, ptr %18, align 1
  %55 = trunc i8 %54 to i1
  %56 = zext i1 %55 to i8
  store i8 %56, ptr %18, align 1
  br label %57

57:                                               ; preds = %53
  br label %58

58:                                               ; preds = %57
  store i32 -1, ptr %17, align 4
  br label %180

59:                                               ; No predecessors!
  br label %60

60:                                               ; preds = %59
  br label %61

61:                                               ; preds = %60, %38
  %62 = load i32, ptr %8, align 4
  %63 = icmp eq i32 %62, 1
  br i1 %63, label %64, label %92

64:                                               ; preds = %61
  store i64 0, ptr %19, align 8
  %65 = load ptr, ptr %7, align 8
  %66 = getelementptr inbounds %struct.H5O_loc_t, ptr %65, i32 0, i32 0
  %67 = load ptr, ptr %66, align 8
  %68 = getelementptr inbounds %struct.H5O_stab_t, ptr %14, i32 0, i32 0
  %69 = load i64, ptr %68, align 8
  %70 = call i32 @H5B_iterate(ptr noundef %67, ptr noundef @H5B_SNODE, i64 noundef %69, ptr noundef @H5G__node_sumup, ptr noundef %19)
  %71 = icmp slt i32 %70, 0
  br i1 %71, label %72, label %87

72:                                               ; preds = %64
  br label %73

73:                                               ; preds = %72
  br label %74

74:                                               ; preds = %73
  br label %75

75:                                               ; preds = %74
  %76 = load i64, ptr @H5E_SYM_g, align 8
  %77 = load i64, ptr @H5E_CANTINIT_g, align 8
  %78 = call i32 (ptr, ptr, i32, i64, i64, ptr, ...) @H5E_printf_stack(ptr noundef @.str, ptr noundef @__func__.H5G__stab_get_name_by_idx, i32 noundef 707, i64 noundef %76, i64 noundef %77, ptr noundef @.str.17)
  br label %79

79:                                               ; preds = %75
  store i8 1, ptr %18, align 1
  %80 = load i8, ptr %18, align 1
  %81 = trunc i8 %80 to i1
  %82 = zext i1 %81 to i8
  store i8 %82, ptr %18, align 1
  br label %83

83:                                               ; preds = %79
  br label %84

84:                                               ; preds = %83
  store i32 -1, ptr %17, align 4
  br label %180

85:                                               ; No predecessors!
  br label %86

86:                                               ; preds = %85
  br label %87

87:                                               ; preds = %86, %64
  %88 = load i64, ptr %19, align 8
  %89 = load i64, ptr %9, align 8
  %90 = add i64 %89, 1
  %91 = sub i64 %88, %90
  store i64 %91, ptr %9, align 8
  br label %92

92:                                               ; preds = %87, %61
  %93 = load i64, ptr %9, align 8
  %94 = getelementptr inbounds %struct.H5G_bt_it_gnbi_t, ptr %15, i32 0, i32 0
  %95 = getelementptr inbounds %struct.H5G_bt_it_idx_common_t, ptr %94, i32 0, i32 0
  store i64 %93, ptr %95, align 8
  %96 = getelementptr inbounds %struct.H5G_bt_it_gnbi_t, ptr %15, i32 0, i32 0
  %97 = getelementptr inbounds %struct.H5G_bt_it_idx_common_t, ptr %96, i32 0, i32 1
  store i64 0, ptr %97, align 8
  %98 = getelementptr inbounds %struct.H5G_bt_it_gnbi_t, ptr %15, i32 0, i32 0
  %99 = getelementptr inbounds %struct.H5G_bt_it_idx_common_t, ptr %98, i32 0, i32 2
  store ptr @H5G__stab_get_name_by_idx_cb, ptr %99, align 8
  %100 = load ptr, ptr %13, align 8
  %101 = getelementptr inbounds %struct.H5G_bt_it_gnbi_t, ptr %15, i32 0, i32 1
  store ptr %100, ptr %101, align 8
  %102 = getelementptr inbounds %struct.H5G_bt_it_gnbi_t, ptr %15, i32 0, i32 2
  store ptr null, ptr %102, align 8
  store i8 1, ptr %16, align 1
  %103 = load ptr, ptr %7, align 8
  %104 = getelementptr inbounds %struct.H5O_loc_t, ptr %103, i32 0, i32 0
  %105 = load ptr, ptr %104, align 8
  %106 = getelementptr inbounds %struct.H5O_stab_t, ptr %14, i32 0, i32 0
  %107 = load i64, ptr %106, align 8
  %108 = call i32 @H5B_iterate(ptr noundef %105, ptr noundef @H5B_SNODE, i64 noundef %107, ptr noundef @H5G__node_by_idx, ptr noundef %15)
  %109 = icmp slt i32 %108, 0
  br i1 %109, label %110, label %125

110:                                              ; preds = %92
  br label %111

111:                                              ; preds = %110
  br label %112

112:                                              ; preds = %111
  br label %113

113:                                              ; preds = %112
  %114 = load i64, ptr @H5E_ARGS_g, align 8
  %115 = load i64, ptr @H5E_BADTYPE_g, align 8
  %116 = call i32 (ptr, ptr, i32, i64, i64, ptr, ...) @H5E_printf_stack(ptr noundef @.str, ptr noundef @__func__.H5G__stab_get_name_by_idx, i32 noundef 723, i64 noundef %114, i64 noundef %115, ptr noundef @.str.17)
  br label %117

117:                                              ; preds = %113
  store i8 1, ptr %18, align 1
  %118 = load i8, ptr %18, align 1
  %119 = trunc i8 %118 to i1
  %120 = zext i1 %119 to i8
  store i8 %120, ptr %18, align 1
  br label %121

121:                                              ; preds = %117
  br label %122

122:                                              ; preds = %121
  store i32 -1, ptr %17, align 4
  br label %180

123:                                              ; No predecessors!
  br label %124

124:                                              ; preds = %123
  br label %125

125:                                              ; preds = %124, %92
  %126 = getelementptr inbounds %struct.H5G_bt_it_gnbi_t, ptr %15, i32 0, i32 2
  %127 = load ptr, ptr %126, align 8
  %128 = icmp eq ptr %127, null
  br i1 %128, label %129, label %144

129:                                              ; preds = %125
  br label %130

130:                                              ; preds = %129
  br label %131

131:                                              ; preds = %130
  br label %132

132:                                              ; preds = %131
  %133 = load i64, ptr @H5E_ARGS_g, align 8
  %134 = load i64, ptr @H5E_BADTYPE_g, align 8
  %135 = call i32 (ptr, ptr, i32, i64, i64, ptr, ...) @H5E_printf_stack(ptr noundef @.str, ptr noundef @__func__.H5G__stab_get_name_by_idx, i32 noundef 727, i64 noundef %133, i64 noundef %134, ptr noundef @.str.20)
  br label %136

136:                                              ; preds = %132
  store i8 1, ptr %18, align 1
  %137 = load i8, ptr %18, align 1
  %138 = trunc i8 %137 to i1
  %139 = zext i1 %138 to i8
  store i8 %139, ptr %18, align 1
  br label %140

140:                                              ; preds = %136
  br label %141

141:                                              ; preds = %140
  store i32 -1, ptr %17, align 4
  br label %180

142:                                              ; No predecessors!
  br label %143

143:                                              ; preds = %142
  br label %144

144:                                              ; preds = %143, %125
  %145 = getelementptr inbounds %struct.H5G_bt_it_gnbi_t, ptr %15, i32 0, i32 2
  %146 = load ptr, ptr %145, align 8
  %147 = call i64 @strlen(ptr noundef %146) #5
  %148 = load ptr, ptr %12, align 8
  store i64 %147, ptr %148, align 8
  %149 = load ptr, ptr %10, align 8
  %150 = icmp ne ptr %149, null
  br i1 %150, label %151, label %179

151:                                              ; preds = %144
  %152 = load ptr, ptr %10, align 8
  %153 = getelementptr inbounds %struct.H5G_bt_it_gnbi_t, ptr %15, i32 0, i32 2
  %154 = load ptr, ptr %153, align 8
  %155 = load ptr, ptr %12, align 8
  %156 = load i64, ptr %155, align 8
  %157 = add i64 %156, 1
  %158 = load i64, ptr %11, align 8
  %159 = icmp ult i64 %157, %158
  br i1 %159, label %160, label %164

160:                                              ; preds = %151
  %161 = load ptr, ptr %12, align 8
  %162 = load i64, ptr %161, align 8
  %163 = add i64 %162, 1
  br label %166

164:                                              ; preds = %151
  %165 = load i64, ptr %11, align 8
  br label %166

166:                                              ; preds = %164, %160
  %167 = phi i64 [ %163, %160 ], [ %165, %164 ]
  %168 = call ptr @strncpy(ptr noundef %152, ptr noundef %154, i64 noundef %167) #6
  %169 = load ptr, ptr %12, align 8
  %170 = load i64, ptr %169, align 8
  %171 = load i64, ptr %11, align 8
  %172 = icmp uge i64 %170, %171
  br i1 %172, label %173, label %178

173:                                              ; preds = %166
  %174 = load ptr, ptr %10, align 8
  %175 = load i64, ptr %11, align 8
  %176 = sub i64 %175, 1
  %177 = getelementptr inbounds i8, ptr %174, i64 %176
  store i8 0, ptr %177, align 1
  br label %178

178:                                              ; preds = %173, %166
  br label %179

179:                                              ; preds = %178, %144
  br label %180

180:                                              ; preds = %179, %141, %122, %84, %58, %35
  %181 = load ptr, ptr %13, align 8
  %182 = icmp ne ptr %181, null
  br i1 %182, label %183, label %200

183:                                              ; preds = %180
  %184 = load ptr, ptr %13, align 8
  %185 = call i32 @H5HL_unprotect(ptr noundef %184)
  %186 = icmp slt i32 %185, 0
  br i1 %186, label %187, label %200

187:                                              ; preds = %183
  br label %188

188:                                              ; preds = %187
  br label %189

189:                                              ; preds = %188
  br label %190

190:                                              ; preds = %189
  %191 = load i64, ptr @H5E_SYM_g, align 8
  %192 = load i64, ptr @H5E_PROTECT_g, align 8
  %193 = call i32 (ptr, ptr, i32, i64, i64, ptr, ...) @H5E_printf_stack(ptr noundef @.str, ptr noundef @__func__.H5G__stab_get_name_by_idx, i32 noundef 742, i64 noundef %191, i64 noundef %192, ptr noundef @.str.6)
  br label %194

194:                                              ; preds = %190
  store i8 1, ptr %18, align 1
  %195 = load i8, ptr %18, align 1
  %196 = trunc i8 %195 to i1
  %197 = zext i1 %196 to i8
  store i8 %197, ptr %18, align 1
  br label %198

198:                                              ; preds = %194
  store i32 -1, ptr %17, align 4
  br label %199

199:                                              ; preds = %198
  br label %200

200:                                              ; preds = %199, %183, %180
  %201 = load i8, ptr %16, align 1
  %202 = trunc i8 %201 to i1
  br i1 %202, label %203, label %211

203:                                              ; preds = %200
  %204 = getelementptr inbounds %struct.H5G_bt_it_gnbi_t, ptr %15, i32 0, i32 2
  %205 = load ptr, ptr %204, align 8
  %206 = icmp ne ptr %205, null
  br i1 %206, label %207, label %211

207:                                              ; preds = %203
  %208 = getelementptr inbounds %struct.H5G_bt_it_gnbi_t, ptr %15, i32 0, i32 2
  %209 = load ptr, ptr %208, align 8
  %210 = call ptr @H5MM_xfree(ptr noundef %209)
  br label %211

211:                                              ; preds = %207, %203, %200
  %212 = load i32, ptr %17, align 4
  ret i32 %212
}