; Function Attrs: nounwind uwtable
define range(i32 -1, 1) i32 @H5G__stab_get_name_by_idx(ptr noundef %0, i32 noundef %1, i64 noundef %2, ptr noundef %3, i64 noundef %4, ptr nocapture noundef %5) local_unnamed_addr #0 {
  %7 = alloca %struct.H5O_stab_t, align 8
  %8 = alloca %struct.H5G_bt_it_gnbi_t, align 8
  %9 = alloca i64, align 8
  call void @llvm.memset.p0.i64(ptr noundef nonnull align 8 dereferenceable(40) %8, i8 0, i64 40, i1 false)
  %10 = call ptr @H5O_msg_read(ptr noundef %0, i32 noundef 17, ptr noundef nonnull %7) #6
  %11 = icmp eq ptr %10, null
  br i1 %11, label %12, label %16

12:                                               ; preds = %6
  %13 = load i64, ptr @H5E_SYM_g, align 8
  %14 = load i64, ptr @H5E_NOTFOUND_g, align 8
  %15 = call i32 (ptr, ptr, i32, i64, i64, ptr, ...) @H5E_printf_stack(ptr noundef nonnull @.str, ptr noundef nonnull @__func__.H5G__stab_get_name_by_idx, i32 noundef 695, i64 noundef %13, i64 noundef %14, ptr noundef nonnull @.str.16) #6
  br label %.thread52

16:                                               ; preds = %6
  %17 = load ptr, ptr %0, align 8
  %18 = getelementptr inbounds i8, ptr %7, i64 8
  %19 = load i64, ptr %18, align 8
  %20 = call ptr @H5HL_protect(ptr noundef %17, i64 noundef %19, i32 noundef 128) #6
  %21 = icmp eq ptr %20, null
  br i1 %21, label %22, label %26

22:                                               ; preds = %16
  %23 = load i64, ptr @H5E_SYM_g, align 8
  %24 = load i64, ptr @H5E_PROTECT_g, align 8
  %25 = call i32 (ptr, ptr, i32, i64, i64, ptr, ...) @H5E_printf_stack(ptr noundef nonnull @.str, ptr noundef nonnull @__func__.H5G__stab_get_name_by_idx, i32 noundef 699, i64 noundef %23, i64 noundef %24, ptr noundef nonnull @.str.3) #6
  br label %.thread52

26:                                               ; preds = %16
  %27 = icmp eq i32 %1, 1
  br i1 %27, label %28, label %40

28:                                               ; preds = %26
  store i64 0, ptr %9, align 8
  %29 = load ptr, ptr %0, align 8
  %30 = load i64, ptr %7, align 8
  %31 = call i32 @H5B_iterate(ptr noundef %29, ptr noundef nonnull @H5B_SNODE, i64 noundef %30, ptr noundef nonnull @H5G__node_sumup, ptr noundef nonnull %9) #6
  %32 = icmp slt i32 %31, 0
  br i1 %32, label %33, label %37

33:                                               ; preds = %28
  %34 = load i64, ptr @H5E_SYM_g, align 8
  %35 = load i64, ptr @H5E_CANTINIT_g, align 8
  %36 = call i32 (ptr, ptr, i32, i64, i64, ptr, ...) @H5E_printf_stack(ptr noundef nonnull @.str, ptr noundef nonnull @__func__.H5G__stab_get_name_by_idx, i32 noundef 707, i64 noundef %34, i64 noundef %35, ptr noundef nonnull @.str.17) #6
  br label %69

37:                                               ; preds = %28
  %38 = load i64, ptr %9, align 8
  %.neg = xor i64 %2, -1
  %39 = add i64 %38, %.neg
  br label %40

40:                                               ; preds = %37, %26
  %.032 = phi i64 [ %39, %37 ], [ %2, %26 ]
  store i64 %.032, ptr %8, align 8
  %41 = getelementptr inbounds i8, ptr %8, i64 8
  store i64 0, ptr %41, align 8
  %42 = getelementptr inbounds i8, ptr %8, i64 16
  store ptr @H5G__stab_get_name_by_idx_cb, ptr %42, align 8
  %43 = getelementptr inbounds i8, ptr %8, i64 24
  store ptr %20, ptr %43, align 8
  %44 = getelementptr inbounds i8, ptr %8, i64 32
  store ptr null, ptr %44, align 8
  %45 = load ptr, ptr %0, align 8
  %46 = load i64, ptr %7, align 8
  %47 = call i32 @H5B_iterate(ptr noundef %45, ptr noundef nonnull @H5B_SNODE, i64 noundef %46, ptr noundef nonnull @H5G__node_by_idx, ptr noundef nonnull %8) #6
  %48 = icmp slt i32 %47, 0
  br i1 %48, label %49, label %53

49:                                               ; preds = %40
  %50 = load i64, ptr @H5E_ARGS_g, align 8
  %51 = load i64, ptr @H5E_BADTYPE_g, align 8
  %52 = call i32 (ptr, ptr, i32, i64, i64, ptr, ...) @H5E_printf_stack(ptr noundef nonnull @.str, ptr noundef nonnull @__func__.H5G__stab_get_name_by_idx, i32 noundef 723, i64 noundef %50, i64 noundef %51, ptr noundef nonnull @.str.17) #6
  br label %69

53:                                               ; preds = %40
  %54 = load ptr, ptr %44, align 8
  %55 = icmp eq ptr %54, null
  br i1 %55, label %56, label %60

56:                                               ; preds = %53
  %57 = load i64, ptr @H5E_ARGS_g, align 8
  %58 = load i64, ptr @H5E_BADTYPE_g, align 8
  %59 = call i32 (ptr, ptr, i32, i64, i64, ptr, ...) @H5E_printf_stack(ptr noundef nonnull @.str, ptr noundef nonnull @__func__.H5G__stab_get_name_by_idx, i32 noundef 727, i64 noundef %57, i64 noundef %58, ptr noundef nonnull @.str.20) #6
  br label %69

60:                                               ; preds = %53
  %61 = call i64 @strlen(ptr noundef nonnull dereferenceable(1) %54) #7
  store i64 %61, ptr %5, align 8
  %.not = icmp eq ptr %3, null
  br i1 %.not, label %69, label %62

62:                                               ; preds = %60
  %63 = add i64 %61, 1
  %. = call i64 @llvm.umin.i64(i64 %63, i64 %4)
  %64 = call ptr @strncpy(ptr noundef nonnull %3, ptr noundef nonnull %54, i64 noundef %.) #6
  %65 = load i64, ptr %5, align 8
  %.not41 = icmp ult i64 %65, %4
  br i1 %.not41, label %69, label %66

66:                                               ; preds = %62
  %67 = getelementptr i8, ptr %3, i64 %4
  %68 = getelementptr i8, ptr %67, i64 -1
  store i8 0, ptr %68, align 1
  br label %69

69:                                               ; preds = %33, %49, %56, %66, %62, %60
  %.030.ph = phi i1 [ true, %60 ], [ true, %62 ], [ true, %66 ], [ true, %56 ], [ true, %49 ], [ false, %33 ]
  %.0.ph = phi i32 [ 0, %60 ], [ 0, %62 ], [ 0, %66 ], [ -1, %56 ], [ -1, %49 ], [ -1, %33 ]
  %70 = call i32 @H5HL_unprotect(ptr noundef nonnull %20) #6
  %71 = icmp slt i32 %70, 0
  br i1 %71, label %72, label %76

72:                                               ; preds = %69
  %73 = load i64, ptr @H5E_SYM_g, align 8
  %74 = load i64, ptr @H5E_PROTECT_g, align 8
  %75 = call i32 (ptr, ptr, i32, i64, i64, ptr, ...) @H5E_printf_stack(ptr noundef nonnull @.str, ptr noundef nonnull @__func__.H5G__stab_get_name_by_idx, i32 noundef 742, i64 noundef %73, i64 noundef %74, ptr noundef nonnull @.str.6) #6
  br label %76

76:                                               ; preds = %72, %69
  %.1 = phi i32 [ -1, %72 ], [ %.0.ph, %69 ]
  %77 = getelementptr inbounds i8, ptr %8, i64 32
  %78 = load ptr, ptr %77, align 8
  %79 = icmp ne ptr %78, null
  %or.cond = select i1 %.030.ph, i1 %79, i1 false
  br i1 %or.cond, label %80, label %.thread52

80:                                               ; preds = %76
  %81 = call ptr @H5MM_xfree(ptr noundef nonnull %78) #6
  br label %.thread52

.thread52:                                        ; preds = %22, %12, %80, %76
  %.156 = phi i32 [ %.1, %80 ], [ %.1, %76 ], [ -1, %12 ], [ -1, %22 ]
  ret i32 %.156
}